target datalayout = "e-m:e-p270:32:32-p271:32:32-p272:64:64-i64:64-i128:128-f80:128-n8:16:32:64-S128"
target triple = "x86_64-pc-linux-gnu"

%struct.rdmapinfo = type { i8, i8, i8, %union.anon, ptr }
%union.anon = type { %struct.anon.0 }
%struct.anon.0 = type { i32, i64 }

; Function Attrs: null_pointer_is_valid sspstrong uwtable
define internal zeroext i1 @dissect_smb_direct_iwarp_heur(ptr noundef %0, ptr noundef %1, ptr noundef %2, ptr noundef %3) #0 {
  %5 = alloca i1, align 1
  %6 = alloca ptr, align 8
  %7 = alloca ptr, align 8
  %8 = alloca ptr, align 8
  %9 = alloca ptr, align 8
  %10 = alloca ptr, align 8
  %11 = alloca i32, align 4
  %12 = alloca i32, align 4
  store ptr %0, ptr %6, align 8
  store ptr %1, ptr %7, align 8
  store ptr %2, ptr %8, align 8
  store ptr %3, ptr %9, align 8
  call void @llvm.lifetime.start.p0(i64 8, ptr %10) #3
  %13 = load ptr, ptr %9, align 8
  store ptr %13, ptr %10, align 8
  call void @llvm.lifetime.start.p0(i64 4, ptr %11) #3
  %14 = load ptr, ptr %10, align 8
  %15 = icmp eq ptr %14, null
  br i1 %15, label %16, label %17

16:                                               ; preds = %4
  store i1 false, ptr %5, align 1
  store i32 1, ptr %12, align 4
  br label %36

17:                                               ; preds = %4
  %18 = load ptr, ptr %10, align 8
  %19 = getelementptr inbounds nuw %struct.rdmapinfo, ptr %18, i32 0, i32 0
  %20 = load i8, ptr %19, align 8
  %21 = zext i8 %20 to i32
  switch i32 %21, label %23 [
    i32 3, label %22
    i32 4, label %22
    i32 5, label %22
    i32 6, label %22
  ]

22:                                               ; preds = %17, %17, %17, %17
  br label %24

23:                                               ; preds = %17
  store i1 false, ptr %5, align 1
  store i32 1, ptr %12, align 4
  br label %36

24:                                               ; preds = %22
  %25 = load ptr, ptr %6, align 8
  %26 = load ptr, ptr %7, align 8
  %27 = call i32 @is_smb_direct(ptr noundef %25, ptr noundef %26)
  store i32 %27, ptr %11, align 4
  %28 = load i32, ptr %11, align 4
  %29 = icmp eq i32 %28, -1
  br i1 %29, label %30, label %31

30:                                               ; preds = %24
  store i1 false, ptr %5, align 1
  store i32 1, ptr %12, align 4
  br label %36

31:                                               ; preds = %24
  %32 = load ptr, ptr %6, align 8
  %33 = load ptr, ptr %7, align 8
  %34 = load ptr, ptr %8, align 8
  %35 = load i32, ptr %11, align 4
  call void @dissect_smb_direct(ptr noundef %32, ptr noundef %33, ptr noundef %34, i32 noundef %35)
  store i1 true, ptr %5, align 1
  store i32 1, ptr %12, align 4
  br label %36

36:                                               ; preds = %31, %30, %23, %16
  call void @llvm.lifetime.end.p0(i64 4, ptr %11) #3
  call void @llvm.lifetime.end.p0(i64 8, ptr %10) #3
  %37 = load i1, ptr %5, align 1
  ret i1 %37
}