; Function Attrs: null_pointer_is_valid sspstrong uwtable
define internal noundef zeroext i1 @dissect_smb_direct_iwarp_heur(ptr noundef %0, ptr noundef %1, ptr noundef %2, ptr noundef readonly captures(address_is_null) %3) #0 {
  %5 = icmp eq ptr %3, null
  br i1 %5, label %12, label %6

6:                                                ; preds = %4
  %7 = load i8, ptr %3, align 8
  %.off = add i8 %7, -3
  %switch = icmp ult i8 %.off, 4
  br i1 %switch, label %8, label %12

8:                                                ; preds = %6
  %9 = tail call fastcc i32 @is_smb_direct(ptr noundef %0)
  %10 = icmp eq i32 %9, -1
  br i1 %10, label %12, label %11

11:                                               ; preds = %8
  tail call fastcc void @dissect_smb_direct(ptr noundef %0, ptr noundef %1, ptr noundef %2, i32 noundef %9)
  br label %12

12:                                               ; preds = %8, %6, %4, %11
  %.0 = phi i1 [ true, %11 ], [ false, %4 ], [ false, %6 ], [ false, %8 ]
  ret i1 %.0
}